Certificate:
    Data:
        Version: 3 (0x2)
        Serial Number: 1278722625 (0x4c37c241)
        Signature Algorithm: sha256WithRSAEncryption
        Issuer: CN = MtF Accepted SMIME EV2, O = MtF Accepted Platform, OU = Extended Personal Verification (EV2), ST = Harju, C = EE, L = Tallinn
        Validity
            Not Before: Aug 22 06:25:08 2022 GMT
            Not After : Aug 21 06:25:08 2024 GMT
        Subject: CN = Chunqing Shan, ST = Harju, C = EE, L = Tallinn, emailAddress = me@vx.st
        Subject Public Key Info:
            Public Key Algorithm: rsaEncryption
                RSA Public-Key: (2048 bit)
                Modulus:
                    00:d1:dc:09:4d:77:61:ea:ed:14:63:91:c1:fb:0f:
                    b7:20:b7:c4:f0:09:1a:36:99:1b:63:12:75:9f:71:
                    16:c3:54:75:ce:d3:16:8b:c8:04:ea:4b:c4:b7:cf:
                    06:ad:5a:b0:ab:92:f1:dd:d5:6d:1b:9d:d3:45:fa:
                    8a:b4:72:85:b7:0d:8c:5d:db:96:8e:06:d8:14:70:
                    ca:b0:72:a7:ac:c4:39:fb:5b:22:2b:ac:94:ed:12:
                    4d:b4:68:cc:e5:9f:8c:ec:18:87:8d:a3:de:52:c7:
                    b0:fb:4b:2d:2f:0f:7b:c0:3e:a5:22:f2:6a:5f:8d:
                    08:d2:51:b2:c6:29:d2:a2:8a:b3:f2:0d:5b:f0:e5:
                    e8:1a:d7:cd:7f:ef:55:b2:8a:7f:21:8d:32:44:8b:
                    e2:8a:a1:a7:a1:65:ae:20:ba:97:59:ec:0a:64:ff:
                    9e:c3:96:9e:86:be:a3:6b:ad:6d:e1:7c:57:06:02:
                    cd:ef:d6:7e:49:ac:c4:cc:13:0c:62:04:d8:42:42:
                    45:25:aa:9b:04:a6:d8:72:d3:27:0f:68:72:ed:2b:
                    d8:8d:bb:a3:3c:0b:5d:c6:b4:91:cd:71:4a:8b:8f:
                    54:fd:c1:81:03:40:dc:17:e5:f4:d3:8c:b2:56:f5:
                    45:8d:9b:b2:df:4a:13:6b:72:4a:5e:cf:a2:25:6c:
                    94:7b
                Exponent: 65537 (0x10001)
        X509v3 extensions:
            X509v3 Key Usage: critical
                Digital Signature, Key Encipherment
            X509v3 Extended Key Usage: critical
                E-mail Protection
            X509v3 Subject Key Identifier: 
                22:E4:FD:6E:04:A8:25:14:A8:4E:CC:4B:2B:9F:89:41:0A:54:C4:9A
            X509v3 Authority Key Identifier: 
                keyid:17:82:37:B0:AF:52:ED:71:04:77:32:DC:36:70:49:AB:BA:93:6E:D2

            X509v3 Subject Alternative Name: critical
                email:me@vx.st
    Signature Algorithm: sha256WithRSAEncryption
         58:2b:9c:c1:d3:e6:42:38:13:ec:ff:82:39:a8:30:2b:1c:01:
         fc:fe:27:19:10:af:8d:d4:4b:51:7a:68:db:7c:4a:4f:f2:f1:
         2f:08:58:0f:2d:2b:9c:54:e9:fd:3d:6a:39:d8:1e:c5:c8:67:
         76:39:d2:d0:2c:5a:48:ea:86:1b:07:7d:98:dd:ce:55:11:00:
         8e:43:1c:27:92:70:1e:43:14:ff:df:5d:25:14:64:58:01:ef:
         b7:79:ed:b0:54:67:ac:07:ae:7c:76:65:f6:bf:e8:17:e9:f1:
         8b:48:44:26:14:ea:06:df:9c:93:c1:f3:22:49:d3:51:01:ed:
         3d:30:f4:31:5c:50:55:a2:73:a4:78:cd:d6:3a:03:63:0d:b7:
         1d:f4:09:75:31:63:bf:e7:e5:a0:42:d1:a6:b6:ba:d0:48:83:
         cf:a9:c2:29:42:10:bb:79:65:06:8f:6f:4e:d3:c8:2f:57:8e:
         62:54:b1:0f:ba:69:c7:3b:85:ca:44:17:4c:6c:75:65:c8:3c:
         aa:6c:8a:f9:56:de:c6:16:79:62:5e:bd:a4:9a:cd:90:51:f0:
         4b:12:28:1d:81:cb:cb:60:85:e2:ac:72:22:8e:c5:d3:dd:88:
         65:c8:84:c8:b8:de:be:0b:c1:fd:f7:a0:4c:88:92:49:5b:5d:
         ee:a8:d5:ac
-----BEGIN CERTIFICATE-----
MIIEAjCCAuqgAwIBAgIETDfCQTANBgkqhkiG9w0BAQsFADCBnzEfMB0GA1UEAwwW
TXRGIEFjY2VwdGVkIFNNSU1FIEVWMjEeMBwGA1UECgwVTXRGIEFjY2VwdGVkIFBs
YXRmb3JtMS0wKwYDVQQLDCRFeHRlbmRlZCBQZXJzb25hbCBWZXJpZmljYXRpb24g
KEVWMikxDjAMBgNVBAgMBUhhcmp1MQswCQYDVQQGEwJFRTEQMA4GA1UEBwwHVGFs
bGlubjAeFw0yMjA4MjIwNjI1MDhaFw0yNDA4MjEwNjI1MDhaMGAxFjAUBgNVBAMM
DUNodW5xaW5nIFNoYW4xDjAMBgNVBAgMBUhhcmp1MQswCQYDVQQGEwJFRTEQMA4G
A1UEBwwHVGFsbGlubjEXMBUGCSqGSIb3DQEJARYIbWVAdnguc3QwggEiMA0GCSqG
SIb3DQEBAQUAA4IBDwAwggEKAoIBAQDR3AlNd2Hq7RRjkcH7D7cgt8TwCRo2mRtj
EnWfcRbDVHXO0xaLyATqS8S3zwatWrCrkvHd1W0bndNF+oq0coW3DYxd25aOBtgU
cMqwcqesxDn7WyIrrJTtEk20aMzln4zsGIeNo95Sx7D7Sy0vD3vAPqUi8mpfjQjS
UbLGKdKiirPyDVvw5ega181/71Wyin8hjTJEi+KKoaehZa4gupdZ7Apk/57Dlp6G
vqNrrW3hfFcGAs3v1n5JrMTMEwxiBNhCQkUlqpsEpthy0ycPaHLtK9iNu6M8C13G
tJHNcUqLj1T9wYEDQNwX5fTTjLJW9UWNm7LfShNrckpez6IlbJR7AgMBAAGjgYMw
gYAwDgYDVR0PAQH/BAQDAgWgMBYGA1UdJQEB/wQMMAoGCCsGAQUFBwMEMB0GA1Ud
DgQWBBQi5P1uBKglFKhOzEsrn4lBClTEmjAfBgNVHSMEGDAWgBQXgjewr1LtcQR3
Mtw2cEmrupNu0jAWBgNVHREBAf8EDDAKgQhtZUB2eC5zdDANBgkqhkiG9w0BAQsF
AAOCAQEAWCucwdPmQjgT7P+COagwKxwB/P4nGRCvjdRLUXpo23xKT/LxLwhYDy0r
nFTp/T1qOdgexchndjnS0CxaSOqGGwd9mN3OVREAjkMcJ5JwHkMU/99dJRRkWAHv
t3ntsFRnrAeufHZl9r/oF+nxi0hEJhTqBt+ck8HzIknTUQHtPTD0MVxQVaJzpHjN
1joDYw23HfQJdTFjv+floELRpra60EiDz6nCKUIQu3llBo9vTtPIL1eOYlSxD7pp
xzuFykQXTGx1Zcg8qmyK+VbexhZ5Yl69pJrNkFHwSxIoHYHLy2CF4qxyIo7F092I
ZciEyLjevgvB/fegTIiSSVtd7qjVrA==
-----END CERTIFICATE-----
