Certificate:
    Data:
        Version: 3 (0x2)
        Serial Number: 1 (0x1)
        Signature Algorithm: sha256WithRSAEncryption
        Issuer: CN = MtF Accepted Root CA, O = MtF Accepted Platform, ST = Harju, C = EE, L = Tallinn
        Validity
            Not Before: Dec 31 22:00:00 2009 GMT
            Not After : Dec 31 22:00:00 2028 GMT
        Subject: CN = MtF Accepted Root CA, O = MtF Accepted Platform, ST = Harju, C = EE, L = Tallinn
        Subject Public Key Info:
            Public Key Algorithm: rsaEncryption
                RSA Public-Key: (2048 bit)
                Modulus:
                    00:ae:90:8e:76:74:ac:04:bd:e5:05:27:eb:b7:25:
                    9e:d1:c4:33:06:d0:91:a4:ed:ec:09:74:bd:9a:48:
                    12:b7:bc:da:19:41:6b:be:75:f4:1e:0f:da:ef:8b:
                    61:e2:b0:a9:ea:9a:06:e0:f6:62:18:69:68:06:e7:
                    86:cb:f3:dd:11:5a:de:5d:7b:20:9b:7d:c7:89:b4:
                    b5:39:eb:ab:ef:8e:50:37:7f:ea:bc:32:7a:ab:50:
                    cd:b7:aa:77:db:60:8b:c2:b0:66:3b:91:c1:df:60:
                    17:82:fd:b8:75:14:39:e0:b7:71:5a:59:36:c9:15:
                    94:a4:35:e1:25:be:57:a6:96:73:4f:52:05:de:b3:
                    fa:d8:a0:44:ab:4e:50:3f:fb:09:6c:a4:f4:10:8d:
                    01:b5:54:3f:55:92:01:f1:0d:37:9d:80:25:6e:e4:
                    63:ac:c5:77:6d:49:16:9c:b9:b3:03:8c:3c:61:94:
                    ee:59:a0:df:a6:29:70:b0:90:32:8d:5d:e2:78:25:
                    76:cf:67:83:53:a8:f1:2b:ca:5a:51:37:aa:fa:20:
                    84:4a:4e:11:21:5a:4a:f2:e5:a5:9a:f0:48:5b:96:
                    48:1d:28:05:e6:df:df:6a:f2:bf:a9:42:ab:f7:43:
                    b4:00:b6:74:b0:80:6d:aa:0b:10:b4:5e:eb:7c:63:
                    78:77
                Exponent: 65537 (0x10001)
        X509v3 extensions:
            X509v3 Basic Constraints: critical
                CA:TRUE, pathlen:1
            X509v3 Key Usage: critical
                Certificate Sign, CRL Sign
            X509v3 Subject Key Identifier: 
                92:C4:E5:47:43:4A:E8:67:77:2B:32:E4:41:7F:70:EC:8F:D4:AA:BC
    Signature Algorithm: sha256WithRSAEncryption
         28:78:2e:60:a6:ff:b9:af:d8:93:1e:cf:0e:6a:d1:3a:7b:82:
         8a:2a:6d:54:3a:68:51:29:d9:fb:b0:c5:06:37:41:2a:fd:9a:
         ac:f9:08:da:d7:a9:e0:de:15:9d:a2:0e:3d:97:74:4e:73:68:
         37:2f:97:7a:76:d2:f9:f6:8c:72:fc:0e:86:58:3e:46:c0:a5:
         2c:2e:9d:01:57:f5:f7:1c:2a:59:b2:95:67:d9:d3:d2:34:6a:
         66:e7:2f:bd:7d:e3:6f:3d:44:d5:50:af:0a:68:52:86:16:27:
         1d:ee:1d:e5:44:58:09:d2:60:c2:83:65:25:7e:4b:f4:34:ce:
         44:cd:ee:4f:38:1b:c3:22:e8:92:29:78:4c:4c:0a:68:b4:49:
         ab:fb:b0:6e:42:4a:e8:40:e8:87:b7:58:98:7b:14:87:5f:e4:
         40:e0:7f:3c:8d:fc:14:b6:ec:87:4b:ef:16:a5:09:39:8b:66:
         eb:8c:04:6e:fb:72:1c:b6:33:ff:67:d8:c3:3e:d7:16:dc:0c:
         b9:f7:56:e9:35:9a:d3:1e:5c:db:56:62:06:b2:b3:ae:a1:03:
         66:ed:bc:22:93:54:b0:45:12:24:cc:95:2d:ef:45:8b:2e:63:
         35:27:7f:ec:2d:f0:60:21:df:bb:24:48:4b:ad:f3:28:fc:ee:
         51:cd:97:d0
-----BEGIN CERTIFICATE-----
MIIDnDCCAoSgAwIBAgIBATANBgkqhkiG9w0BAQsFADBuMR0wGwYDVQQDDBRNdEYg
QWNjZXB0ZWQgUm9vdCBDQTEeMBwGA1UECgwVTXRGIEFjY2VwdGVkIFBsYXRmb3Jt
MQ4wDAYDVQQIDAVIYXJqdTELMAkGA1UEBhMCRUUxEDAOBgNVBAcMB1RhbGxpbm4w
HhcNMDkxMjMxMjIwMDAwWhcNMjgxMjMxMjIwMDAwWjBuMR0wGwYDVQQDDBRNdEYg
QWNjZXB0ZWQgUm9vdCBDQTEeMBwGA1UECgwVTXRGIEFjY2VwdGVkIFBsYXRmb3Jt
MQ4wDAYDVQQIDAVIYXJqdTELMAkGA1UEBhMCRUUxEDAOBgNVBAcMB1RhbGxpbm4w
ggEiMA0GCSqGSIb3DQEBAQUAA4IBDwAwggEKAoIBAQCukI52dKwEveUFJ+u3JZ7R
xDMG0JGk7ewJdL2aSBK3vNoZQWu+dfQeD9rvi2HisKnqmgbg9mIYaWgG54bL890R
Wt5deyCbfceJtLU566vvjlA3f+q8MnqrUM23qnfbYIvCsGY7kcHfYBeC/bh1FDng
t3FaWTbJFZSkNeElvlemlnNPUgXes/rYoESrTlA/+wlspPQQjQG1VD9VkgHxDTed
gCVu5GOsxXdtSRacubMDjDxhlO5ZoN+mKXCwkDKNXeJ4JXbPZ4NTqPErylpRN6r6
IIRKThEhWkry5aWa8EhblkgdKAXm399q8r+pQqv3Q7QAtnSwgG2qCxC0Xut8Y3h3
AgMBAAGjRTBDMBIGA1UdEwEB/wQIMAYBAf8CAQEwDgYDVR0PAQH/BAQDAgEGMB0G
A1UdDgQWBBSSxOVHQ0roZ3crMuRBf3Dsj9SqvDANBgkqhkiG9w0BAQsFAAOCAQEA
KHguYKb/ua/Ykx7PDmrROnuCiiptVDpoUSnZ+7DFBjdBKv2arPkI2tep4N4VnaIO
PZd0TnNoNy+XenbS+faMcvwOhlg+RsClLC6dAVf19xwqWbKVZ9nT0jRqZucvvX3j
bz1E1VCvCmhShhYnHe4d5URYCdJgwoNlJX5L9DTORM3uTzgbwyLokil4TEwKaLRJ
q/uwbkJK6EDoh7dYmHsUh1/kQOB/PI38FLbsh0vvFqUJOYtm64wEbvtyHLYz/2fY
wz7XFtwMufdW6TWa0x5c21ZiBrKzrqEDZu28IpNUsEUSJMyVLe9Fiy5jNSd/7C3w
YCHfuyRIS63zKPzuUc2X0A==
-----END CERTIFICATE-----
