Certificate:
    Data:
        Version: 3 (0x2)
        Serial Number:
            54:88:5b:6c:df:38:8e:29:52:a5:9d:2a:f0:f3:b0:18
        Signature Algorithm: sha256WithRSAEncryption
        Issuer: C=IT, ST=Bergamo, L=Ponte San Pietro, O=Actalis S.p.A., CN=Actalis Client Authentication CA G3
        Validity
            Not Before: Oct 11 23:26:32 2024 GMT
            Not After : Oct 11 23:26:32 2025 GMT
        Subject: CN=me@vx.st
        Subject Public Key Info:
            Public Key Algorithm: rsaEncryption
                Public-Key: (2048 bit)
                Modulus:
                    00:c6:c0:48:ad:e2:29:73:cb:cc:ed:26:20:c1:9d:
                    51:f4:12:f6:90:10:fa:53:31:42:39:5c:ac:9f:53:
                    f2:b3:d6:95:91:78:6b:c5:1b:25:45:a0:bd:0e:57:
                    d3:f0:73:9d:4e:2b:da:e1:c0:67:e2:d2:1b:65:3e:
                    61:19:2a:35:63:4e:02:73:8f:b4:e9:df:cf:12:cb:
                    13:2a:5e:b7:70:7a:fc:33:c9:c9:46:ac:b0:d6:7b:
                    a3:6e:a5:9e:b2:b7:94:66:b3:48:23:2e:23:b6:29:
                    2b:8b:ee:55:f5:b1:6f:1d:0a:df:84:cf:19:fe:0e:
                    7e:40:64:7f:e5:21:22:31:6c:85:7b:35:82:d1:74:
                    a4:13:46:5c:67:44:1f:af:f5:5a:c1:2b:0e:d6:3f:
                    37:a1:09:e3:bc:f2:dc:dc:5a:9b:52:11:d1:c4:96:
                    41:5e:77:9e:9c:70:1f:74:2c:83:69:0a:4a:ba:1f:
                    d3:5f:10:35:8e:59:da:87:c2:4c:e5:e0:6d:2d:e5:
                    f9:99:a5:2b:14:79:9e:35:a8:3e:6c:01:ee:52:e0:
                    f8:fc:01:c9:e9:96:3d:d0:d1:dd:9c:95:cb:10:63:
                    4c:9d:af:55:a2:cd:58:b4:37:f0:8e:58:cb:19:58:
                    05:a5:9a:0e:71:79:2e:a7:d6:82:d8:12:4b:53:3d:
                    a3:b9
                Exponent: 65537 (0x10001)
        X509v3 extensions:
            X509v3 Basic Constraints: critical
                CA:FALSE
            X509v3 Authority Key Identifier: 
                BE:97:A9:AA:84:BF:80:BF:10:53:7D:09:32:F9:E1:2E:32:1B:CF:77
            Authority Information Access: 
                CA Issuers - URI:http://cacert.actalis.it/certs/actalis-autclig3
                OCSP - URI:http://ocsp09.actalis.it/VA/AUTHCL-G3
            X509v3 Subject Alternative Name: 
                email:me@vx.st
            X509v3 Certificate Policies: 
                Policy: 1.3.159.16.1.1
                  CPS: https://www.actalis.it/area-download
                Policy: 2.23.140.1.5.1.1
            X509v3 Extended Key Usage: 
                TLS Web Client Authentication, E-mail Protection
            X509v3 CRL Distribution Points: 
                Full Name:
                  URI:http://crl09.actalis.it/Repository/AUTHCL-G3/getLastCRL
            X509v3 Subject Key Identifier: 
                FF:15:51:AA:D8:A4:A8:07:AD:BF:CE:82:76:01:53:A9:B6:B3:73:98
            X509v3 Key Usage: critical
                Digital Signature, Key Encipherment
    Signature Algorithm: sha256WithRSAEncryption
    Signature Value:
        c9:c1:96:b2:63:e5:35:97:47:ee:40:5e:84:fb:9f:3c:db:ad:
        70:bf:cd:51:77:1b:b3:38:6b:f8:14:4d:f4:e2:51:1b:03:e4:
        8e:91:de:2b:d1:ca:33:18:3d:e5:7a:4a:e9:c8:73:2d:b2:6b:
        1b:c2:85:79:c6:ef:b0:df:0e:a8:a2:29:07:1c:e7:94:26:a6:
        f9:ee:2e:e4:12:37:e3:14:cd:a5:a0:2a:1c:f0:65:95:a8:ae:
        ed:49:e5:07:f5:83:ed:77:c7:cb:86:d7:08:45:d7:23:69:0a:
        b1:2c:be:42:1b:c3:7b:9d:61:a4:e5:b8:67:6e:37:e0:27:8b:
        23:bb:a4:b1:a9:8b:b0:68:2e:cc:e8:3c:0e:e5:75:ed:48:88:
        5d:30:59:23:ab:75:25:06:97:b0:cc:bf:53:9c:13:35:5e:fd:
        80:08:e4:f1:ce:6c:ae:fe:fd:80:7d:27:6e:52:9a:6d:90:5e:
        14:cb:0c:68:d4:df:9c:9f:2b:97:b5:de:c1:20:23:1a:b1:c6:
        15:09:9a:29:8b:4c:00:31:89:b9:e5:9f:c6:7c:c1:63:c3:42:
        0c:0c:f8:f4:43:9c:07:ef:14:98:9d:3d:1a:dc:4e:5b:be:3c:
        16:d6:76:10:64:5e:7d:98:da:6b:03:d2:32:7d:80:50:e1:e1:
        9d:8f:60:50:39:53:e7:86:1e:29:48:df:6c:76:b6:e8:c6:39:
        c8:42:c1:7c:52:23:6b:83:97:61:81:2c:79:84:fa:08:fa:c1:
        0c:f5:a8:f4:e6:2f:c5:b9:ae:28:9b:4b:c2:72:72:3d:83:1b:
        07:c3:70:42:65:81:8a:fd:a5:ef:7e:41:5b:2a:03:10:22:4f:
        60:27:90:ba:41:11:cf:3f:be:b6:e7:c6:bc:2d:fd:24:11:86:
        c4:85:0b:66:1d:ec:47:db:c3:c5:64:a0:98:f0:6d:7f:f1:2e:
        39:df:a6:06:86:cc:e6:c8:17:6e:b7:33:2a:59:9c:73:0b:ea:
        4e:36:5b:42:f7:a0:06:3b:97:4c:59:0f:a6:1d:f5:a8:54:7e:
        79:02:a6:f6:a2:fc:f1:7e:b3:6a:6e:b4:72:c4:61:c0:97:fa:
        81:2d:27:6a:be:8b:6c:6d:ae:13:dc:a2:1e:d2:c0:e4:52:4b:
        85:d2:8a:64:ed:18:09:2d:78:34:63:2b:88:e2:57:33:15:ed:
        9f:c4:2a:e5:ce:20:7a:ab:7b:30:a8:cf:0f:1d:16:eb:90:be:
        73:54:39:45:80:7d:db:70:5d:84:c1:c8:be:f4:91:6f:b8:f9:
        be:a6:c7:0e:a4:ef:5b:b2:5c:48:c2:53:09:ce:49:69:f0:1e:
        9e:18:87:ce:0b:d6:34:70
-----BEGIN CERTIFICATE-----
MIIF1TCCA72gAwIBAgIQVIhbbN84jilSpZ0q8POwGDANBgkqhkiG9w0BAQsFADCB
gTELMAkGA1UEBhMCSVQxEDAOBgNVBAgMB0JlcmdhbW8xGTAXBgNVBAcMEFBvbnRl
IFNhbiBQaWV0cm8xFzAVBgNVBAoMDkFjdGFsaXMgUy5wLkEuMSwwKgYDVQQDDCNB
Y3RhbGlzIENsaWVudCBBdXRoZW50aWNhdGlvbiBDQSBHMzAeFw0yNDEwMTEyMzI2
MzJaFw0yNTEwMTEyMzI2MzJaMBMxETAPBgNVBAMMCG1lQHZ4LnN0MIIBIjANBgkq
hkiG9w0BAQEFAAOCAQ8AMIIBCgKCAQEAxsBIreIpc8vM7SYgwZ1R9BL2kBD6UzFC
OVysn1Pys9aVkXhrxRslRaC9DlfT8HOdTiva4cBn4tIbZT5hGSo1Y04Cc4+06d/P
EssTKl63cHr8M8nJRqyw1nujbqWesreUZrNIIy4jtikri+5V9bFvHQrfhM8Z/g5+
QGR/5SEiMWyFezWC0XSkE0ZcZ0Qfr/VawSsO1j83oQnjvPLc3FqbUhHRxJZBXnee
nHAfdCyDaQpKuh/TXxA1jlnah8JM5eBtLeX5maUrFHmeNag+bAHuUuD4/AHJ6ZY9
0NHdnJXLEGNMna9Vos1YtDfwjljLGVgFpZoOcXkup9aC2BJLUz2juQIDAQABo4IB
tDCCAbAwDAYDVR0TAQH/BAIwADAfBgNVHSMEGDAWgBS+l6mqhL+AvxBTfQky+eEu
MhvPdzB+BggrBgEFBQcBAQRyMHAwOwYIKwYBBQUHMAKGL2h0dHA6Ly9jYWNlcnQu
YWN0YWxpcy5pdC9jZXJ0cy9hY3RhbGlzLWF1dGNsaWczMDEGCCsGAQUFBzABhiVo
dHRwOi8vb2NzcDA5LmFjdGFsaXMuaXQvVkEvQVVUSENMLUczMBMGA1UdEQQMMAqB
CG1lQHZ4LnN0MFIGA1UdIARLMEkwPAYGK4EfEAEBMDIwMAYIKwYBBQUHAgEWJGh0
dHBzOi8vd3d3LmFjdGFsaXMuaXQvYXJlYS1kb3dubG9hZDAJBgdngQwBBQEBMB0G
A1UdJQQWMBQGCCsGAQUFBwMCBggrBgEFBQcDBDBIBgNVHR8EQTA/MD2gO6A5hjdo
dHRwOi8vY3JsMDkuYWN0YWxpcy5pdC9SZXBvc2l0b3J5L0FVVEhDTC1HMy9nZXRM
YXN0Q1JMMB0GA1UdDgQWBBT/FVGq2KSoB62/zoJ2AVOptrNzmDAOBgNVHQ8BAf8E
BAMCBaAwDQYJKoZIhvcNAQELBQADggIBAMnBlrJj5TWXR+5AXoT7nzzbrXC/zVF3
G7M4a/gUTfTiURsD5I6R3ivRyjMYPeV6SunIcy2yaxvChXnG77DfDqiiKQcc55Qm
pvnuLuQSN+MUzaWgKhzwZZWoru1J5Qf1g+13x8uG1whF1yNpCrEsvkIbw3udYaTl
uGduN+AniyO7pLGpi7BoLszoPA7lde1IiF0wWSOrdSUGl7DMv1OcEzVe/YAI5PHO
bK7+/YB9J25Smm2QXhTLDGjU35yfK5e13sEgIxqxxhUJmimLTAAxibnln8Z8wWPD
QgwM+PRDnAfvFJidPRrcTlu+PBbWdhBkXn2Y2msD0jJ9gFDh4Z2PYFA5U+eGHilI
32x2tujGOchCwXxSI2uDl2GBLHmE+gj6wQz1qPTmL8W5riibS8Jycj2DGwfDcEJl
gYr9pe9+QVsqAxAiT2AnkLpBEc8/vrbnxrwt/SQRhsSFC2Yd7Efbw8VkoJjwbX/x
LjnfpgaGzObIF263MypZnHML6k42W0L3oAY7l0xZD6Yd9ahUfnkCpvai/PF+s2pu
tHLEYcCX+oEtJ2q+i2xtrhPcoh7SwORSS4XSimTtGAkteDRjK4jiVzMV7Z/EKuXO
IHqrezCozw8dFuuQvnNUOUWAfdtwXYTByL70kW+4+b6mxw6k71uyXEjCUwnOSWnw
Hp4Yh84L1jRw
-----END CERTIFICATE-----
