Certificate:
    Data:
        Version: 3 (0x2)
        Serial Number: 1278722626 (0x4c37c242)
        Signature Algorithm: sha256WithRSAEncryption
        Issuer: CN = MtF Accepted SMIME EV2, O = MtF Accepted Platform, OU = Extended Personal Verification (EV2), ST = Harju, C = EE, L = Tallinn
        Validity
            Not Before: Aug 22 06:28:42 2022 GMT
            Not After : Aug 21 06:28:42 2024 GMT
        Subject: CN = Chunqing Shan, ST = Harju, C = EE, L = Tallinn, emailAddress = vxst@riseup.net
        Subject Public Key Info:
            Public Key Algorithm: rsaEncryption
                RSA Public-Key: (2048 bit)
                Modulus:
                    00:d6:5f:50:1f:6d:53:31:88:d2:72:a4:46:81:97:
                    8b:b3:f9:1e:d3:96:62:3e:48:e0:48:57:9e:4b:65:
                    2a:f2:ba:46:19:7c:3b:75:fb:11:27:3c:fd:29:6b:
                    9a:91:cc:14:10:fb:b1:0e:5d:db:b7:b6:87:4f:d5:
                    16:dc:47:1e:10:31:89:8b:a3:32:a7:77:6a:f5:4d:
                    c0:08:53:d0:b0:84:53:01:c1:4a:e6:01:f4:98:03:
                    9f:1d:d9:af:05:48:11:a3:4d:31:71:e1:90:1f:a2:
                    90:d5:eb:e8:af:a4:46:6e:e2:68:ad:00:70:72:b9:
                    54:9e:dd:1d:c1:35:b0:36:0c:45:da:64:81:e4:1a:
                    7e:31:3a:65:68:3c:ff:ee:bd:89:ec:ca:b6:50:47:
                    87:05:b6:07:1d:1f:81:c0:b5:c7:e4:c6:49:c9:61:
                    20:88:0a:5b:90:a5:0e:dd:60:30:b8:53:35:dd:6a:
                    d4:b0:79:2d:66:f7:89:92:11:75:a3:80:ea:e6:f4:
                    0b:b4:4f:99:17:b7:c7:a4:80:40:5c:d7:51:0e:6a:
                    53:ce:e8:e4:42:85:16:0b:02:13:36:bc:38:09:2b:
                    09:bd:e7:39:45:d5:60:7e:a3:03:a7:22:27:56:65:
                    11:5a:c8:5b:b6:0d:cc:4b:20:9b:1c:71:ff:3b:6b:
                    be:e3
                Exponent: 65537 (0x10001)
        X509v3 extensions:
            X509v3 Key Usage: critical
                Digital Signature, Key Encipherment
            X509v3 Extended Key Usage: critical
                E-mail Protection
            X509v3 Subject Key Identifier: 
                6A:0C:52:61:2F:AB:94:45:6A:C9:54:92:E3:AC:D1:5A:CA:0F:00:33
            X509v3 Authority Key Identifier: 
                keyid:17:82:37:B0:AF:52:ED:71:04:77:32:DC:36:70:49:AB:BA:93:6E:D2

            X509v3 Subject Alternative Name: 
                email:vxst@riseup.net
    Signature Algorithm: sha256WithRSAEncryption
         17:5e:d4:20:d3:81:af:9b:af:97:67:76:8d:08:6d:a8:d3:4d:
         68:7f:c2:58:0d:75:27:50:30:e1:70:2d:8d:ba:f3:1e:35:e8:
         35:03:44:99:5a:3f:20:c9:25:34:35:03:d7:74:9f:4b:08:e5:
         3d:40:97:bb:cd:18:7e:68:00:c4:f0:25:5c:4d:d5:24:68:c6:
         ba:5d:02:83:9f:c0:f8:5b:59:10:33:ed:fb:77:7d:07:d5:ef:
         42:9b:96:6a:31:92:ba:c1:1b:c0:1c:0c:13:3c:d1:6e:88:3b:
         e2:7b:2b:3e:b8:45:cd:68:ee:cc:57:1c:a5:f4:55:d8:c1:49:
         00:9e:05:29:1e:44:77:0a:51:a6:37:ba:b6:44:c7:c9:42:82:
         58:a0:64:94:a3:0b:83:dc:49:f2:9d:91:5c:94:19:f3:fd:d8:
         72:d1:83:99:8a:92:f6:d2:c0:1a:a9:28:7a:54:52:d9:96:c2:
         c7:54:ab:01:95:d8:3f:84:12:b1:96:a5:ea:19:d7:8c:a8:3d:
         b1:fb:2c:cc:2c:e2:45:d4:e8:84:c5:c1:bc:3a:40:f6:d4:dd:
         dc:f6:b5:9c:0e:bd:e8:47:cc:f1:86:11:0b:56:09:81:c9:f0:
         0f:20:1e:53:c9:ca:35:90:14:00:1b:92:46:a6:e8:ec:1c:80:
         05:82:b0:57
-----BEGIN CERTIFICATE-----
MIIEDTCCAvWgAwIBAgIETDfCQjANBgkqhkiG9w0BAQsFADCBnzEfMB0GA1UEAwwW
TXRGIEFjY2VwdGVkIFNNSU1FIEVWMjEeMBwGA1UECgwVTXRGIEFjY2VwdGVkIFBs
YXRmb3JtMS0wKwYDVQQLDCRFeHRlbmRlZCBQZXJzb25hbCBWZXJpZmljYXRpb24g
KEVWMikxDjAMBgNVBAgMBUhhcmp1MQswCQYDVQQGEwJFRTEQMA4GA1UEBwwHVGFs
bGlubjAeFw0yMjA4MjIwNjI4NDJaFw0yNDA4MjEwNjI4NDJaMGcxFjAUBgNVBAMM
DUNodW5xaW5nIFNoYW4xDjAMBgNVBAgMBUhhcmp1MQswCQYDVQQGEwJFRTEQMA4G
A1UEBwwHVGFsbGlubjEeMBwGCSqGSIb3DQEJARYPdnhzdEByaXNldXAubmV0MIIB
IjANBgkqhkiG9w0BAQEFAAOCAQ8AMIIBCgKCAQEA1l9QH21TMYjScqRGgZeLs/ke
05ZiPkjgSFeeS2Uq8rpGGXw7dfsRJzz9KWuakcwUEPuxDl3bt7aHT9UW3EceEDGJ
i6Myp3dq9U3ACFPQsIRTAcFK5gH0mAOfHdmvBUgRo00xceGQH6KQ1evor6RGbuJo
rQBwcrlUnt0dwTWwNgxF2mSB5Bp+MTplaDz/7r2J7Mq2UEeHBbYHHR+BwLXH5MZJ
yWEgiApbkKUO3WAwuFM13WrUsHktZveJkhF1o4Dq5vQLtE+ZF7fHpIBAXNdRDmpT
zujkQoUWCwITNrw4CSsJvec5RdVgfqMDpyInVmURWshbtg3MSyCbHHH/O2u+4wID
AQABo4GHMIGEMA4GA1UdDwEB/wQEAwIFoDAWBgNVHSUBAf8EDDAKBggrBgEFBQcD
BDAdBgNVHQ4EFgQUagxSYS+rlEVqyVSS46zRWsoPADMwHwYDVR0jBBgwFoAUF4I3
sK9S7XEEdzLcNnBJq7qTbtIwGgYDVR0RBBMwEYEPdnhzdEByaXNldXAubmV0MA0G
CSqGSIb3DQEBCwUAA4IBAQAXXtQg04Gvm6+XZ3aNCG2o001of8JYDXUnUDDhcC2N
uvMeNeg1A0SZWj8gySU0NQPXdJ9LCOU9QJe7zRh+aADE8CVcTdUkaMa6XQKDn8D4
W1kQM+37d30H1e9Cm5ZqMZK6wRvAHAwTPNFuiDvieys+uEXNaO7MVxyl9FXYwUkA
ngUpHkR3ClGmN7q2RMfJQoJYoGSUowuD3EnynZFclBnz/dhy0YOZipL20sAaqSh6
VFLZlsLHVKsBldg/hBKxlqXqGdeMqD2x+yzMLOJF1OiExcG8OkD21N3c9rWcDr3o
R8zxhhELVgmByfAPIB5Tyco1kBQAG5JGpujsHIAFgrBX
-----END CERTIFICATE-----
